target datalayout = "e-m:e-p270:32:32-p271:32:32-p272:64:64-i64:64-i128:128-f80:128-n8:16:32:64-S128"
target triple = "x86_64-pc-linux-gnu"

%struct.evp_test_st = type { %struct.stanza_st, ptr, i32, ptr, ptr, ptr, ptr, ptr, ptr, i32 }
%struct.stanza_st = type { ptr, ptr, i32, i32, i32, i32, i32, i32, [150 x %struct.pair_st], ptr, [32768 x i8] }
%struct.pair_st = type { ptr, ptr }
%struct.ossl_param_st = type { ptr, i32, ptr, i64, i64 }
%struct.DIGESTSIGN_DATA = type { i32, i32, ptr, ptr, ptr, ptr, ptr, i64, ptr, i64, i32, ptr, ptr, ptr }

@libctx = internal global ptr null, align 8
@.str.29 = private unnamed_addr constant [27 x i8] c"../openssl/test/evp_test.c\00", align 1
@.str.259 = private unnamed_addr constant [23 x i8] c"DIGESTVERIFYINIT_ERROR\00", align 1
@.str.260 = private unnamed_addr constant [21 x i8] c"DIGESTSIGNINIT_ERROR\00", align 1

; Function Attrs: nounwind uwtable
define internal void @ctrl2params_free(ptr noundef %0, i64 noundef %1, i64 noundef %2) #0 {
  %4 = alloca ptr, align 8
  %5 = alloca i64, align 8
  %6 = alloca i64, align 8
  store ptr %0, ptr %4, align 8, !tbaa !33
  store i64 %1, ptr %5, align 8, !tbaa !13
  store i64 %2, ptr %6, align 8, !tbaa !13
  br label %7

7:                                                ; preds = %12, %3
  %8 = load i64, ptr %5, align 8, !tbaa !13
  %9 = add i64 %8, -1
  store i64 %9, ptr %5, align 8, !tbaa !13
  %10 = load i64, ptr %6, align 8, !tbaa !13
  %11 = icmp ugt i64 %8, %10
  br i1 %11, label %12, label %18

12:                                               ; preds = %7
  %13 = load ptr, ptr %4, align 8, !tbaa !33
  %14 = load i64, ptr %5, align 8, !tbaa !13
  %15 = getelementptr inbounds nuw %struct.ossl_param_st, ptr %13, i64 %14
  %16 = getelementptr inbounds nuw %struct.ossl_param_st, ptr %15, i32 0, i32 2
  %17 = load ptr, ptr %16, align 8, !tbaa !133
  call void @CRYPTO_free(ptr noundef %17, ptr noundef @.str.29, i32 noundef 291)
  br label %7, !llvm.loop !135

18:                                               ; preds = %7
  ret void
}

; Function Attrs: inlinehint nounwind uwtable
define internal ptr @ossl_check_const_OPENSSL_STRING_sk_type(ptr noundef %0) #5 {
  %2 = alloca ptr, align 8
  store ptr %0, ptr %2, align 8, !tbaa !131
  %3 = load ptr, ptr %2, align 8, !tbaa !131
  ret ptr %3
}

; Function Attrs: nounwind uwtable
define internal i32 @signverify_init(ptr noundef %0, ptr noundef %1) #0 {
  %3 = alloca i32, align 4
  %4 = alloca ptr, align 8
  %5 = alloca ptr, align 8
  %6 = alloca ptr, align 8
  %7 = alloca [5 x %struct.ossl_param_st], align 16
  %8 = alloca ptr, align 8
  %9 = alloca i32, align 4
  %10 = alloca i32, align 4
  %11 = alloca i64, align 8
  %12 = alloca i64, align 8
  %13 = alloca ptr, align 8
  %14 = alloca i32, align 4
  store ptr %0, ptr %4, align 8, !tbaa !15
  store ptr %1, ptr %5, align 8, !tbaa !97
  call void @llvm.lifetime.start.p0(i64 8, ptr %6) #10
  %15 = load ptr, ptr %5, align 8, !tbaa !97
  %16 = getelementptr inbounds nuw %struct.DIGESTSIGN_DATA, ptr %15, i32 0, i32 2
  %17 = load ptr, ptr %16, align 8, !tbaa !227
  %18 = icmp eq ptr %17, null
  br i1 %18, label %19, label %20

19:                                               ; preds = %2
  br label %25

20:                                               ; preds = %2
  %21 = load ptr, ptr %5, align 8, !tbaa !97
  %22 = getelementptr inbounds nuw %struct.DIGESTSIGN_DATA, ptr %21, i32 0, i32 2
  %23 = load ptr, ptr %22, align 8, !tbaa !227
  %24 = call ptr @EVP_MD_get0_name(ptr noundef %23)
  br label %25

25:                                               ; preds = %20, %19
  %26 = phi ptr [ null, %19 ], [ %24, %20 ]
  store ptr %26, ptr %6, align 8, !tbaa !4
  call void @llvm.lifetime.start.p0(i64 200, ptr %7) #10
  call void @llvm.lifetime.start.p0(i64 8, ptr %8) #10
  store ptr null, ptr %8, align 8, !tbaa !33
  call void @llvm.lifetime.start.p0(i64 4, ptr %9) #10
  call void @llvm.lifetime.start.p0(i64 4, ptr %10) #10
  store i32 0, ptr %10, align 4, !tbaa !9
  call void @llvm.lifetime.start.p0(i64 8, ptr %11) #10
  store i64 0, ptr %11, align 8, !tbaa !13
  call void @llvm.lifetime.start.p0(i64 8, ptr %12) #10
  store i64 0, ptr %12, align 8, !tbaa !13
  %27 = load ptr, ptr %5, align 8, !tbaa !97
  %28 = getelementptr inbounds nuw %struct.DIGESTSIGN_DATA, ptr %27, i32 0, i32 12
  %29 = load ptr, ptr %28, align 8, !tbaa !212
  %30 = call ptr @ossl_check_const_OPENSSL_STRING_sk_type(ptr noundef %29)
  %31 = call i32 @OPENSSL_sk_num(ptr noundef %30)
  %32 = icmp sgt i32 %31, 0
  br i1 %32, label %33, label %44

33:                                               ; preds = %25
  %34 = load ptr, ptr %4, align 8, !tbaa !15
  %35 = load ptr, ptr %5, align 8, !tbaa !97
  %36 = getelementptr inbounds nuw %struct.DIGESTSIGN_DATA, ptr %35, i32 0, i32 12
  %37 = load ptr, ptr %36, align 8, !tbaa !212
  %38 = getelementptr inbounds [5 x %struct.ossl_param_st], ptr %7, i64 0, i64 0
  %39 = call i32 @ctrl2params(ptr noundef %34, ptr noundef %37, ptr noundef null, ptr noundef %38, i64 noundef 5, ptr noundef %11)
  %40 = icmp ne i32 %39, 0
  br i1 %40, label %42, label %41

41:                                               ; preds = %33
  br label %122

42:                                               ; preds = %33
  %43 = getelementptr inbounds [5 x %struct.ossl_param_st], ptr %7, i64 0, i64 0
  store ptr %43, ptr %8, align 8, !tbaa !33
  br label %44

44:                                               ; preds = %42, %25
  %45 = load ptr, ptr %5, align 8, !tbaa !97
  %46 = getelementptr inbounds nuw %struct.DIGESTSIGN_DATA, ptr %45, i32 0, i32 0
  %47 = load i32, ptr %46, align 8, !tbaa !220
  %48 = icmp ne i32 %47, 0
  br i1 %48, label %49, label %67

49:                                               ; preds = %44
  %50 = load ptr, ptr %5, align 8, !tbaa !97
  %51 = getelementptr inbounds nuw %struct.DIGESTSIGN_DATA, ptr %50, i32 0, i32 3
  %52 = load ptr, ptr %51, align 8, !tbaa !216
  %53 = load ptr, ptr %5, align 8, !tbaa !97
  %54 = getelementptr inbounds nuw %struct.DIGESTSIGN_DATA, ptr %53, i32 0, i32 4
  %55 = load ptr, ptr %6, align 8, !tbaa !4
  %56 = load ptr, ptr @libctx, align 8, !tbaa !17
  %57 = load ptr, ptr %5, align 8, !tbaa !97
  %58 = getelementptr inbounds nuw %struct.DIGESTSIGN_DATA, ptr %57, i32 0, i32 11
  %59 = load ptr, ptr %58, align 8, !tbaa !221
  %60 = load ptr, ptr %8, align 8, !tbaa !33
  %61 = call i32 @EVP_DigestVerifyInit_ex(ptr noundef %52, ptr noundef %54, ptr noundef %55, ptr noundef %56, ptr noundef null, ptr noundef %59, ptr noundef %60)
  %62 = icmp ne i32 %61, 0
  br i1 %62, label %66, label %63

63:                                               ; preds = %49
  %64 = load ptr, ptr %4, align 8, !tbaa !15
  %65 = getelementptr inbounds nuw %struct.evp_test_st, ptr %64, i32 0, i32 4
  store ptr @.str.259, ptr %65, align 8, !tbaa !63
  br label %122

66:                                               ; preds = %49
  br label %85

67:                                               ; preds = %44
  %68 = load ptr, ptr %5, align 8, !tbaa !97
  %69 = getelementptr inbounds nuw %struct.DIGESTSIGN_DATA, ptr %68, i32 0, i32 3
  %70 = load ptr, ptr %69, align 8, !tbaa !216
  %71 = load ptr, ptr %5, align 8, !tbaa !97
  %72 = getelementptr inbounds nuw %struct.DIGESTSIGN_DATA, ptr %71, i32 0, i32 4
  %73 = load ptr, ptr %6, align 8, !tbaa !4
  %74 = load ptr, ptr @libctx, align 8, !tbaa !17
  %75 = load ptr, ptr %5, align 8, !tbaa !97
  %76 = getelementptr inbounds nuw %struct.DIGESTSIGN_DATA, ptr %75, i32 0, i32 11
  %77 = load ptr, ptr %76, align 8, !tbaa !221
  %78 = load ptr, ptr %8, align 8, !tbaa !33
  %79 = call i32 @EVP_DigestSignInit_ex(ptr noundef %70, ptr noundef %72, ptr noundef %73, ptr noundef %74, ptr noundef null, ptr noundef %77, ptr noundef %78)
  %80 = icmp ne i32 %79, 0
  br i1 %80, label %84, label %81

81:                                               ; preds = %67
  %82 = load ptr, ptr %4, align 8, !tbaa !15
  %83 = getelementptr inbounds nuw %struct.evp_test_st, ptr %82, i32 0, i32 4
  store ptr @.str.260, ptr %83, align 8, !tbaa !63
  br label %122

84:                                               ; preds = %67
  br label %85

85:                                               ; preds = %84, %66
  store i32 0, ptr %9, align 4, !tbaa !9
  br label %86

86:                                               ; preds = %118, %85
  %87 = load i32, ptr %9, align 4, !tbaa !9
  %88 = load ptr, ptr %5, align 8, !tbaa !97
  %89 = getelementptr inbounds nuw %struct.DIGESTSIGN_DATA, ptr %88, i32 0, i32 13
  %90 = load ptr, ptr %89, align 8, !tbaa !215
  %91 = call ptr @ossl_check_const_OPENSSL_STRING_sk_type(ptr noundef %90)
  %92 = call i32 @OPENSSL_sk_num(ptr noundef %91)
  %93 = icmp slt i32 %87, %92
  br i1 %93, label %94, label %121

94:                                               ; preds = %86
  call void @llvm.lifetime.start.p0(i64 8, ptr %13) #10
  %95 = load ptr, ptr %5, align 8, !tbaa !97
  %96 = getelementptr inbounds nuw %struct.DIGESTSIGN_DATA, ptr %95, i32 0, i32 13
  %97 = load ptr, ptr %96, align 8, !tbaa !215
  %98 = call ptr @ossl_check_const_OPENSSL_STRING_sk_type(ptr noundef %97)
  %99 = load i32, ptr %9, align 4, !tbaa !9
  %100 = call ptr @OPENSSL_sk_value(ptr noundef %98, i32 noundef %99)
  store ptr %100, ptr %13, align 8, !tbaa !4
  %101 = load ptr, ptr %4, align 8, !tbaa !15
  %102 = load ptr, ptr %5, align 8, !tbaa !97
  %103 = getelementptr inbounds nuw %struct.DIGESTSIGN_DATA, ptr %102, i32 0, i32 4
  %104 = load ptr, ptr %103, align 8, !tbaa !224
  %105 = load ptr, ptr %13, align 8, !tbaa !4
  %106 = call i32 @pkey_test_ctrl(ptr noundef %101, ptr noundef %104, ptr noundef %105)
  %107 = icmp ne i32 %106, 0
  br i1 %107, label %108, label %113

108:                                              ; preds = %94
  %109 = load ptr, ptr %4, align 8, !tbaa !15
  %110 = getelementptr inbounds nuw %struct.evp_test_st, ptr %109, i32 0, i32 4
  %111 = load ptr, ptr %110, align 8, !tbaa !63
  %112 = icmp ne ptr %111, null
  br i1 %112, label %113, label %114

113:                                              ; preds = %108, %94
  store i32 2, ptr %14, align 4
  br label %115

114:                                              ; preds = %108
  store i32 0, ptr %14, align 4
  br label %115

115:                                              ; preds = %113, %114
  call void @llvm.lifetime.end.p0(i64 8, ptr %13) #10
  %116 = load i32, ptr %14, align 4
  switch i32 %116, label %127 [
    i32 0, label %117
    i32 2, label %122
  ]

117:                                              ; preds = %115
  br label %118

118:                                              ; preds = %117
  %119 = load i32, ptr %9, align 4, !tbaa !9
  %120 = add nsw i32 %119, 1
  store i32 %120, ptr %9, align 4, !tbaa !9
  br label %86, !llvm.loop !228

121:                                              ; preds = %86
  store i32 1, ptr %10, align 4, !tbaa !9
  br label %122

122:                                              ; preds = %121, %115, %81, %63, %41
  %123 = getelementptr inbounds [5 x %struct.ossl_param_st], ptr %7, i64 0, i64 0
  %124 = load i64, ptr %11, align 8, !tbaa !13
  %125 = load i64, ptr %12, align 8, !tbaa !13
  call void @ctrl2params_free(ptr noundef %123, i64 noundef %124, i64 noundef %125)
  %126 = load i32, ptr %10, align 4, !tbaa !9
  store i32 %126, ptr %3, align 4
  store i32 1, ptr %14, align 4
  br label %127

127:                                              ; preds = %122, %115
  call void @llvm.lifetime.end.p0(i64 8, ptr %12) #10
  call void @llvm.lifetime.end.p0(i64 8, ptr %11) #10
  call void @llvm.lifetime.end.p0(i64 4, ptr %10) #10
  call void @llvm.lifetime.end.p0(i64 4, ptr %9) #10
  call void @llvm.lifetime.end.p0(i64 8, ptr %8) #10
  call void @llvm.lifetime.end.p0(i64 200, ptr %7) #10
  call void @llvm.lifetime.end.p0(i64 8, ptr %6) #10
  %128 = load i32, ptr %3, align 4
  ret i32 %128
}