; Function Attrs: nounwind uwtable
define internal fastcc range(i32 0, 2) i32 @signverify_init(ptr noundef captures(none) %0, ptr noundef %1) unnamed_addr #1 {
  %3 = alloca [5 x %struct.ossl_param_st], align 16
  %4 = alloca i64, align 8
  %5 = getelementptr inbounds nuw i8, ptr %1, i64 8
  %6 = load ptr, ptr %5, align 8, !tbaa !187
  %7 = icmp eq ptr %6, null
  br i1 %7, label %10, label %8

8:                                                ; preds = %2
  %9 = tail call ptr @EVP_MD_get0_name(ptr noundef nonnull %6) #10
  br label %10

10:                                               ; preds = %2, %8
  %11 = phi ptr [ %9, %8 ], [ null, %2 ]
  call void @llvm.lifetime.start.p0(i64 200, ptr nonnull %3) #10
  call void @llvm.lifetime.start.p0(i64 8, ptr nonnull %4) #10
  store i64 0, ptr %4, align 8, !tbaa !35
  %12 = getelementptr inbounds nuw i8, ptr %1, i64 88
  %13 = load ptr, ptr %12, align 8, !tbaa !171
  %14 = tail call i32 @OPENSSL_sk_num(ptr noundef %13) #10
  %15 = icmp sgt i32 %14, 0
  br i1 %15, label %16, label %19

16:                                               ; preds = %10
  %17 = load ptr, ptr %12, align 8, !tbaa !171
  %18 = call fastcc i32 @ctrl2params(ptr noundef %0, ptr noundef %17, ptr noundef null, ptr noundef %3, i64 noundef 5, ptr noundef %4)
  %.not = icmp eq i32 %18, 0
  br i1 %.not, label %.thread, label %19

19:                                               ; preds = %16, %10
  %.031 = phi ptr [ null, %10 ], [ %3, %16 ]
  %20 = load i32, ptr %1, align 8, !tbaa !180
  %.not35 = icmp eq i32 %20, 0
  %21 = getelementptr inbounds nuw i8, ptr %1, i64 16
  %22 = load ptr, ptr %21, align 8, !tbaa !176
  %23 = getelementptr inbounds nuw i8, ptr %1, i64 24
  %24 = load ptr, ptr @libctx, align 8, !tbaa !13
  %25 = getelementptr inbounds nuw i8, ptr %1, i64 80
  %26 = load ptr, ptr %25, align 8, !tbaa !181
  br i1 %.not35, label %29, label %27

27:                                               ; preds = %19
  %28 = call i32 @EVP_DigestVerifyInit_ex(ptr noundef %22, ptr noundef nonnull %23, ptr noundef %11, ptr noundef %24, ptr noundef null, ptr noundef %26, ptr noundef %.031) #10
  %.not37 = icmp eq i32 %28, 0
  br i1 %.not37, label %.thread.sink.split, label %31

29:                                               ; preds = %19
  %30 = call i32 @EVP_DigestSignInit_ex(ptr noundef %22, ptr noundef nonnull %23, ptr noundef %11, ptr noundef %24, ptr noundef null, ptr noundef %26, ptr noundef %.031) #10
  %.not36 = icmp eq i32 %30, 0
  br i1 %.not36, label %.thread.sink.split, label %31

31:                                               ; preds = %29, %27
  %32 = getelementptr inbounds nuw i8, ptr %0, i64 35240
  %33 = getelementptr inbounds nuw i8, ptr %1, i64 96
  %34 = load ptr, ptr %33, align 8, !tbaa !175
  %35 = call i32 @OPENSSL_sk_num(ptr noundef %34) #10
  %36 = icmp sgt i32 %35, 0
  br i1 %36, label %.lr.ph, label %.thread

.lr.ph:                                           ; preds = %31
  %37 = getelementptr inbounds nuw i8, ptr %1, i64 24
  br label %43

38:                                               ; preds = %48
  %39 = add nuw nsw i32 %.03345, 1
  %40 = load ptr, ptr %33, align 8, !tbaa !175
  %41 = call i32 @OPENSSL_sk_num(ptr noundef %40) #10
  %42 = icmp slt i32 %39, %41
  br i1 %42, label %43, label %.thread, !llvm.loop !188

43:                                               ; preds = %.lr.ph, %38
  %.03345 = phi i32 [ 0, %.lr.ph ], [ %39, %38 ]
  %44 = load ptr, ptr %33, align 8, !tbaa !175
  %45 = call ptr @OPENSSL_sk_value(ptr noundef %44, i32 noundef %.03345) #10
  %46 = load ptr, ptr %37, align 8, !tbaa !184
  %47 = call fastcc i32 @pkey_test_ctrl(ptr noundef %0, ptr noundef %46, ptr noundef %45)
  %.not38 = icmp eq i32 %47, 0
  br i1 %.not38, label %.thread, label %48

48:                                               ; preds = %43
  %49 = load ptr, ptr %32, align 8, !tbaa !64
  %.not39 = icmp eq ptr %49, null
  br i1 %.not39, label %38, label %.thread

.thread.sink.split:                               ; preds = %29, %27
  %.str.260.sink = phi ptr [ @.str.259, %27 ], [ @.str.260, %29 ]
  %50 = getelementptr inbounds nuw i8, ptr %0, i64 35240
  store ptr %.str.260.sink, ptr %50, align 8, !tbaa !64
  br label %.thread

.thread:                                          ; preds = %38, %43, %48, %.thread.sink.split, %31, %16
  %.032 = phi i32 [ 0, %16 ], [ 1, %31 ], [ 0, %.thread.sink.split ], [ 1, %38 ], [ 0, %43 ], [ 0, %48 ]
  %51 = load i64, ptr %4, align 8, !tbaa !35
  %.not43 = icmp eq i64 %51, 0
  br i1 %.not43, label %ctrl2params_free.exit, label %.lr.ph.i

.lr.ph.i:                                         ; preds = %.thread, %.lr.ph.i
  %.03.i = phi i64 [ %52, %.lr.ph.i ], [ %51, %.thread ]
  %52 = add i64 %.03.i, -1
  %53 = getelementptr inbounds nuw %struct.ossl_param_st, ptr %3, i64 %52, i32 2
  %54 = load ptr, ptr %53, align 8, !tbaa !98
  call void @CRYPTO_free(ptr noundef %54, ptr noundef nonnull @.str.29, i32 noundef 291) #10
  %.not44 = icmp eq i64 %52, 0
  br i1 %.not44, label %ctrl2params_free.exit, label %.lr.ph.i, !llvm.loop !100

ctrl2params_free.exit:                            ; preds = %.lr.ph.i, %.thread
  call void @llvm.lifetime.end.p0(i64 8, ptr nonnull %4) #10
  call void @llvm.lifetime.end.p0(i64 200, ptr nonnull %3) #10
  ret i32 %.032
}